target datalayout = "e-m:e-p270:32:32-p271:32:32-p272:64:64-i64:64-i128:128-f80:128-n8:16:32:64-S128"
target triple = "x86_64-pc-linux-gnu"

%"class.std::__cxx11::basic_string" = type { %"struct.std::__cxx11::basic_string<char>::_Alloc_hider", i64, %union.anon.0 }
%"struct.std::__cxx11::basic_string<char>::_Alloc_hider" = type { ptr }
%union.anon.0 = type { i64, [8 x i8] }
%"struct.google::protobuf::internal::ArenaStringPtr" = type { %"class.google::protobuf::internal::TaggedPtr" }
%"class.google::protobuf::internal::TaggedPtr" = type { ptr }
%"class.google::protobuf::internal::LogMessage" = type { i32, ptr, i32, %"class.std::__cxx11::basic_string" }
%"class.google::protobuf::internal::LogFinisher" = type { i8 }

@.str.5 = private unnamed_addr constant [143 x i8] c"generated/home/dtcxzyw/WorkSpace/Projects/compilers/llvm-opt-benchmark/bench/opencv/opencv/3rdparty/protobuf/src/google/protobuf/arenastring.h\00", align 1
@.str.6 = private unnamed_addr constant [40 x i8] c"CHECK failed: !tagged_ptr_.IsTagged(): \00", align 1
@.str.7 = private unnamed_addr constant [51 x i8] c"CHECK failed: tagged_ptr_.UnsafeGet() != nullptr: \00", align 1

; Function Attrs: mustprogress nounwind uwtable
define linkonce_odr hidden noundef i64 @_ZNK6google8protobuf8internal9TaggedPtrINSt7__cxx1112basic_stringIcSt11char_traitsIcESaIcEEEE6as_intEv(ptr noundef nonnull align 8 dereferenceable(8) %0) #6 comdat align 2 {
  %2 = alloca ptr, align 8
  store ptr %0, ptr %2, align 8, !tbaa !28
  %3 = load ptr, ptr %2, align 8
  %4 = getelementptr inbounds nuw %"class.google::protobuf::internal::TaggedPtr", ptr %3, i32 0, i32 0
  %5 = load ptr, ptr %4, align 8, !tbaa !30
  %6 = ptrtoint ptr %5 to i64
  ret i64 %6
}

; Function Attrs: mustprogress uwtable
define linkonce_odr hidden noundef zeroext i1 @_ZNK6google8protobuf8internal9TaggedPtrINSt7__cxx1112basic_stringIcSt11char_traitsIcESaIcEEEE8IsTaggedEv(ptr noundef nonnull align 8 dereferenceable(8) %0) #4 comdat align 2 {
  %2 = alloca ptr, align 8
  store ptr %0, ptr %2, align 8, !tbaa !28
  %3 = load ptr, ptr %2, align 8
  %4 = call noundef i64 @_ZNK6google8protobuf8internal9TaggedPtrINSt7__cxx1112basic_stringIcSt11char_traitsIcESaIcEEEE6as_intEv(ptr noundef nonnull align 8 dereferenceable(8) %3)
  %5 = and i64 %4, 1
  %6 = icmp ne i64 %5, 0
  ret i1 %6
}

; Function Attrs: mustprogress nounwind uwtable
define linkonce_odr hidden noundef ptr @_ZNK6google8protobuf8internal9TaggedPtrINSt7__cxx1112basic_stringIcSt11char_traitsIcESaIcEEEE9UnsafeGetEv(ptr noundef nonnull align 8 dereferenceable(8) %0) #6 comdat align 2 {
  %2 = alloca ptr, align 8
  store ptr %0, ptr %2, align 8, !tbaa !28
  %3 = load ptr, ptr %2, align 8
  %4 = getelementptr inbounds nuw %"class.google::protobuf::internal::TaggedPtr", ptr %3, i32 0, i32 0
  %5 = load ptr, ptr %4, align 8, !tbaa !30
  ret ptr %5
}

; Function Attrs: inlinehint mustprogress uwtable
define linkonce_odr hidden noundef nonnull ptr @_ZN6google8protobuf8internal14ArenaStringPtr20UnsafeMutablePointerB5cxx11Ev(ptr noundef nonnull align 8 dereferenceable(8) %0) #9 comdat align 2 personality ptr @__gxx_personality_v0 {
  %2 = alloca ptr, align 8
  %3 = alloca %"class.google::protobuf::internal::LogMessage", align 8
  %4 = alloca i1, align 1
  %5 = alloca i1, align 1
  %6 = alloca ptr, align 8
  %7 = alloca i32, align 4
  %8 = alloca %"class.google::protobuf::internal::LogFinisher", align 1
  %9 = alloca %"class.google::protobuf::internal::LogMessage", align 8
  %10 = alloca i1, align 1
  %11 = alloca i1, align 1
  %12 = alloca %"class.google::protobuf::internal::LogFinisher", align 1
  store ptr %0, ptr %2, align 8, !tbaa !26
  %13 = load ptr, ptr %2, align 8
  br label %14

14:                                               ; preds = %29, %1
  br i1 false, label %15, label %45

15:                                               ; preds = %14
  %16 = getelementptr inbounds nuw %"struct.google::protobuf::internal::ArenaStringPtr", ptr %13, i32 0, i32 0
  %17 = call noundef zeroext i1 @_ZNK6google8protobuf8internal9TaggedPtrINSt7__cxx1112basic_stringIcSt11char_traitsIcESaIcEEEE8IsTaggedEv(ptr noundef nonnull align 8 dereferenceable(8) %16)
  store i1 false, ptr %4, align 1
  store i1 false, ptr %5, align 1
  call void @llvm.lifetime.start.p0(i64 1, ptr %8) #3
  br i1 %17, label %19, label %18

18:                                               ; preds = %15
  br label %23

19:                                               ; preds = %15
  call void @llvm.lifetime.start.p0(i64 56, ptr %3) #3
  store i1 true, ptr %4, align 1
  call void @_ZN6google8protobuf8internal10LogMessageC1ENS0_8LogLevelEPKci(ptr noundef nonnull align 8 dereferenceable(56) %3, i32 noundef 3, ptr noundef @.str.5, i32 noundef 408)
  store i1 true, ptr %5, align 1
  %20 = invoke noundef nonnull align 8 dereferenceable(56) ptr @_ZN6google8protobuf8internal10LogMessagelsEPKc(ptr noundef nonnull align 8 dereferenceable(56) %3, ptr noundef @.str.6)
          to label %21 unwind label %30

21:                                               ; preds = %19
  invoke void @_ZN6google8protobuf8internal11LogFinisheraSERNS1_10LogMessageE(ptr noundef nonnull align 1 dereferenceable(1) %8, ptr noundef nonnull align 8 dereferenceable(56) %20)
          to label %22 unwind label %34

22:                                               ; preds = %21
  br label %23

23:                                               ; preds = %22, %18
  call void @llvm.lifetime.end.p0(i64 1, ptr %8) #3
  %24 = load i1, ptr %5, align 1
  br i1 %24, label %25, label %26

25:                                               ; preds = %23
  call void @_ZN6google8protobuf8internal10LogMessageD1Ev(ptr noundef nonnull align 8 dereferenceable(56) %3) #3
  br label %26

26:                                               ; preds = %25, %23
  %27 = load i1, ptr %4, align 1
  br i1 %27, label %28, label %29

28:                                               ; preds = %26
  call void @llvm.lifetime.end.p0(i64 56, ptr %3) #3
  br label %29

29:                                               ; preds = %28, %26
  br label %14, !llvm.loop !32

30:                                               ; preds = %19
  %31 = landingpad { ptr, i32 }
          cleanup
  %32 = extractvalue { ptr, i32 } %31, 0
  store ptr %32, ptr %6, align 8
  %33 = extractvalue { ptr, i32 } %31, 1
  store i32 %33, ptr %7, align 4
  br label %38

34:                                               ; preds = %21
  %35 = landingpad { ptr, i32 }
          cleanup
  %36 = extractvalue { ptr, i32 } %35, 0
  store ptr %36, ptr %6, align 8
  %37 = extractvalue { ptr, i32 } %35, 1
  store i32 %37, ptr %7, align 4
  call void @llvm.lifetime.end.p0(i64 1, ptr %8) #3
  br label %38

38:                                               ; preds = %34, %30
  %39 = load i1, ptr %5, align 1
  br i1 %39, label %40, label %41

40:                                               ; preds = %38
  call void @_ZN6google8protobuf8internal10LogMessageD1Ev(ptr noundef nonnull align 8 dereferenceable(56) %3) #3
  br label %41

41:                                               ; preds = %40, %38
  %42 = load i1, ptr %4, align 1
  br i1 %42, label %43, label %44

43:                                               ; preds = %41
  call void @llvm.lifetime.end.p0(i64 56, ptr %3) #3
  br label %44

44:                                               ; preds = %43, %41
  br label %81

45:                                               ; preds = %14
  br label %46

46:                                               ; preds = %62, %45
  br i1 false, label %47, label %78

47:                                               ; preds = %46
  %48 = getelementptr inbounds nuw %"struct.google::protobuf::internal::ArenaStringPtr", ptr %13, i32 0, i32 0
  %49 = call noundef ptr @_ZNK6google8protobuf8internal9TaggedPtrINSt7__cxx1112basic_stringIcSt11char_traitsIcESaIcEEEE9UnsafeGetEv(ptr noundef nonnull align 8 dereferenceable(8) %48)
  %50 = icmp ne ptr %49, null
  store i1 false, ptr %10, align 1
  store i1 false, ptr %11, align 1
  call void @llvm.lifetime.start.p0(i64 1, ptr %12) #3
  br i1 %50, label %51, label %52

51:                                               ; preds = %47
  br label %56

52:                                               ; preds = %47
  call void @llvm.lifetime.start.p0(i64 56, ptr %9) #3
  store i1 true, ptr %10, align 1
  call void @_ZN6google8protobuf8internal10LogMessageC1ENS0_8LogLevelEPKci(ptr noundef nonnull align 8 dereferenceable(56) %9, i32 noundef 3, ptr noundef @.str.5, i32 noundef 409)
  store i1 true, ptr %11, align 1
  %53 = invoke noundef nonnull align 8 dereferenceable(56) ptr @_ZN6google8protobuf8internal10LogMessagelsEPKc(ptr noundef nonnull align 8 dereferenceable(56) %9, ptr noundef @.str.7)
          to label %54 unwind label %63

54:                                               ; preds = %52
  invoke void @_ZN6google8protobuf8internal11LogFinisheraSERNS1_10LogMessageE(ptr noundef nonnull align 1 dereferenceable(1) %12, ptr noundef nonnull align 8 dereferenceable(56) %53)
          to label %55 unwind label %67

55:                                               ; preds = %54
  br label %56

56:                                               ; preds = %55, %51
  call void @llvm.lifetime.end.p0(i64 1, ptr %12) #3
  %57 = load i1, ptr %11, align 1
  br i1 %57, label %58, label %59

58:                                               ; preds = %56
  call void @_ZN6google8protobuf8internal10LogMessageD1Ev(ptr noundef nonnull align 8 dereferenceable(56) %9) #3
  br label %59

59:                                               ; preds = %58, %56
  %60 = load i1, ptr %10, align 1
  br i1 %60, label %61, label %62

61:                                               ; preds = %59
  call void @llvm.lifetime.end.p0(i64 56, ptr %9) #3
  br label %62

62:                                               ; preds = %61, %59
  br label %46, !llvm.loop !34

63:                                               ; preds = %52
  %64 = landingpad { ptr, i32 }
          cleanup
  %65 = extractvalue { ptr, i32 } %64, 0
  store ptr %65, ptr %6, align 8
  %66 = extractvalue { ptr, i32 } %64, 1
  store i32 %66, ptr %7, align 4
  br label %71

67:                                               ; preds = %54
  %68 = landingpad { ptr, i32 }
          cleanup
  %69 = extractvalue { ptr, i32 } %68, 0
  store ptr %69, ptr %6, align 8
  %70 = extractvalue { ptr, i32 } %68, 1
  store i32 %70, ptr %7, align 4
  call void @llvm.lifetime.end.p0(i64 1, ptr %12) #3
  br label %71

71:                                               ; preds = %67, %63
  %72 = load i1, ptr %11, align 1
  br i1 %72, label %73, label %74

73:                                               ; preds = %71
  call void @_ZN6google8protobuf8internal10LogMessageD1Ev(ptr noundef nonnull align 8 dereferenceable(56) %9) #3
  br label %74

74:                                               ; preds = %73, %71
  %75 = load i1, ptr %10, align 1
  br i1 %75, label %76, label %77

76:                                               ; preds = %74
  call void @llvm.lifetime.end.p0(i64 56, ptr %9) #3
  br label %77

77:                                               ; preds = %76, %74
  br label %81

78:                                               ; preds = %46
  %79 = getelementptr inbounds nuw %"struct.google::protobuf::internal::ArenaStringPtr", ptr %13, i32 0, i32 0
  %80 = call noundef ptr @_ZNK6google8protobuf8internal9TaggedPtrINSt7__cxx1112basic_stringIcSt11char_traitsIcESaIcEEEE9UnsafeGetEv(ptr noundef nonnull align 8 dereferenceable(8) %79)
  ret ptr %80

81:                                               ; preds = %77, %44
  %82 = load ptr, ptr %6, align 8
  %83 = load i32, ptr %7, align 4
  %84 = insertvalue { ptr, i32 } poison, ptr %82, 0
  %85 = insertvalue { ptr, i32 } %84, i32 %83, 1
  resume { ptr, i32 } %85
}

; Function Attrs: inlinehint mustprogress nounwind uwtable
define linkonce_odr hidden noundef zeroext i1 @_ZNK6google8protobuf8internal14ArenaStringPtr9IsDefaultEPKNSt7__cxx1112basic_stringIcSt11char_traitsIcESaIcEEE(ptr noundef nonnull align 8 dereferenceable(8) %0, ptr noundef %1) #11 comdat align 2 {
  %3 = alloca ptr, align 8
  %4 = alloca ptr, align 8
  store ptr %0, ptr %3, align 8, !tbaa !26
  store ptr %1, ptr %4, align 8, !tbaa !8
  %5 = load ptr, ptr %3, align 8
  %6 = getelementptr inbounds nuw %"struct.google::protobuf::internal::ArenaStringPtr", ptr %5, i32 0, i32 0
  %7 = call noundef ptr @_ZNK6google8protobuf8internal9TaggedPtrINSt7__cxx1112basic_stringIcSt11char_traitsIcESaIcEEEE9UnsafeGetEv(ptr noundef nonnull align 8 dereferenceable(8) %6)
  %8 = load ptr, ptr %4, align 8, !tbaa !8
  %9 = icmp eq ptr %7, %8
  ret i1 %9
}

; Function Attrs: mustprogress nounwind uwtable
define linkonce_odr hidden noundef zeroext i1 @_ZNK6google8protobuf8internal14ArenaStringPtr15IsDonatedStringEv(ptr noundef nonnull align 8 dereferenceable(8) %0) #6 comdat align 2 {
  %2 = alloca ptr, align 8
  store ptr %0, ptr %2, align 8, !tbaa !26
  ret i1 false
}

; Function Attrs: mustprogress uwtable
define hidden noundef ptr @_ZN6google8protobuf8internal14ArenaStringPtr7MutableB5cxx11ERKNS1_10LazyStringEPNS0_5ArenaE(ptr noundef nonnull align 8 dereferenceable(8) %0, ptr noundef nonnull align 8 dereferenceable(40) %1, ptr noundef %2) #4 align 2 {
  %4 = alloca ptr, align 8
  %5 = alloca ptr, align 8
  %6 = alloca ptr, align 8
  %7 = alloca ptr, align 8
  store ptr %0, ptr %5, align 8, !tbaa !26
  store ptr %1, ptr %6, align 8, !tbaa !3
  store ptr %2, ptr %7, align 8, !tbaa !35
  %8 = load ptr, ptr %5, align 8
  %9 = call noundef zeroext i1 @_ZNK6google8protobuf8internal14ArenaStringPtr15IsDonatedStringEv(ptr noundef nonnull align 8 dereferenceable(8) %8)
  br i1 %9, label %14, label %10

10:                                               ; preds = %3
  %11 = call noundef zeroext i1 @_ZNK6google8protobuf8internal14ArenaStringPtr9IsDefaultEPKNSt7__cxx1112basic_stringIcSt11char_traitsIcESaIcEEE(ptr noundef nonnull align 8 dereferenceable(8) %8, ptr noundef null)
  br i1 %11, label %14, label %12

12:                                               ; preds = %10
  %13 = call noundef nonnull ptr @_ZN6google8protobuf8internal14ArenaStringPtr20UnsafeMutablePointerB5cxx11Ev(ptr noundef nonnull align 8 dereferenceable(8) %8)
  store ptr %13, ptr %4, align 8
  br label %18

14:                                               ; preds = %10, %3
  %15 = load ptr, ptr %7, align 8, !tbaa !35
  %16 = load ptr, ptr %6, align 8, !tbaa !3
  %17 = call noundef ptr @_ZN6google8protobuf8internal14ArenaStringPtr11MutableSlowIJNS1_10LazyStringEEEEPNSt7__cxx1112basic_stringIcSt11char_traitsIcESaIcEEEPNS0_5ArenaEDpRKT_(ptr noundef nonnull align 8 dereferenceable(8) %8, ptr noundef %15, ptr noundef nonnull align 8 dereferenceable(40) %16)
  store ptr %17, ptr %4, align 8
  br label %18

18:                                               ; preds = %14, %12
  %19 = load ptr, ptr %4, align 8
  ret ptr %19
}